ccopy_reg
_reconstructor
p0
(csklearn.model_selection._search
GridSearchCV
p1
c__builtin__
object
p2
Ntp3
Rp4
(dp5
S'cv_results_'
p6
g0
(csklearn.utils.deprecation
DeprecationDict
p7
c__builtin__
dict
p8
(dp9
S'std_train_score'
p10
cnumpy.core.multiarray
_reconstruct
p11
(cnumpy
ndarray
p12
(I0
tp13
S'b'
p14
tp15
Rp16
(I1
(I1
tp17
cnumpy
dtype
p18
(S'f8'
p19
I0
I1
tp20
Rp21
(I3
S'<'
p22
NNNI-1
I-1
I0
tp23
bI00
S'\x82\xf53D\xa7\xea\xb5?'
p24
tp25
bsS'rank_test_score'
p26
g11
(g12
(I0
tp27
g14
tp28
Rp29
(I1
(I1
tp30
g18
(S'i4'
p31
I0
I1
tp32
Rp33
(I3
S'<'
p34
NNNI-1
I-1
I0
tp35
bI00
S'\x01\x00\x00\x00'
p36
tp37
bsS'split4_test_score'
p38
g11
(g12
(I0
tp39
g14
tp40
Rp41
(I1
(I1
tp42
g21
I00
S'\x00\x00\x00\x00\x00\x00\x00\x00'
p43
tp44
bsS'split6_test_score'
p45
g11
(g12
(I0
tp46
g14
tp47
Rp48
(I1
(I1
tp49
g21
I00
S'\x00\x00\x00\x00\x00\x00\x00\x00'
p50
tp51
bsS'split0_test_score'
p52
g11
(g12
(I0
tp53
g14
tp54
Rp55
(I1
(I1
tp56
g21
I00
S'\x00\x00\x00\x00\x00\x00\x00\x00'
p57
tp58
bsS'split2_train_score'
p59
g11
(g12
(I0
tp60
g14
tp61
Rp62
(I1
(I1
tp63
g21
I00
S'rc\x88\xb7\x0b\x99\xe2?'
p64
tp65
bsS'split7_train_score'
p66
g11
(g12
(I0
tp67
g14
tp68
Rp69
(I1
(I1
tp70
g21
I00
S'6JW|\xde]\xe5?'
p71
tp72
bsS'split0_train_score'
p73
g11
(g12
(I0
tp74
g14
tp75
Rp76
(I1
(I1
tp77
g21
I00
S'\xc1\x18e\xed4\xcf\xe1?'
p78
tp79
bsS'split4_train_score'
p80
g11
(g12
(I0
tp81
g14
tp82
Rp83
(I1
(I1
tp84
g21
I00
S'\x1bY_@uO\xdd?'
p85
tp86
bsS'split2_test_score'
p87
g11
(g12
(I0
tp88
g14
tp89
Rp90
(I1
(I1
tp91
g21
I00
S'\x00\x00\x00\x00\x00\x00\x00\x00'
p92
tp93
bsS'mean_score_time'
p94
g11
(g12
(I0
tp95
g14
tp96
Rp97
(I1
(I1
tp98
g21
I00
S'\x00\x00\x00\x00\x00\xf0F?'
p99
tp100
bsS'mean_fit_time'
p101
g11
(g12
(I0
tp102
g14
tp103
Rp104
(I1
(I1
tp105
g21
I00
S'33333bP?'
p106
tp107
bsS'split3_train_score'
p108
g11
(g12
(I0
tp109
g14
tp110
Rp111
(I1
(I1
tp112
g21
I00
S'j\x90\xc0(\x91c\xe2?'
p113
tp114
bsS'split9_train_score'
p115
g11
(g12
(I0
tp116
g14
tp117
Rp118
(I1
(I1
tp119
g21
I00
S'\x13\xfc$Or\x1f\xe3?'
p120
tp121
bsS'split5_test_score'
p122
g11
(g12
(I0
tp123
g14
tp124
Rp125
(I1
(I1
tp126
g21
I00
S'\x00\x00\x00\x00\x00\x00\x00\x00'
p127
tp128
bsS'split5_train_score'
p129
g11
(g12
(I0
tp130
g14
tp131
Rp132
(I1
(I1
tp133
g21
I00
S"&'\xa1\x16\xd5T\xe3?"
p134
tp135
bsS'split6_train_score'
p136
g11
(g12
(I0
tp137
g14
tp138
Rp139
(I1
(I1
tp140
g21
I00
S'\xa6\xb8\xda\xe4@{\xda?'
p141
tp142
bsS'split9_test_score'
p143
g11
(g12
(I0
tp144
g14
tp145
Rp146
(I1
(I1
tp147
g21
I00
S'\x00\x00\x00\x00\x00\x00\x00\x00'
p148
tp149
bsS'std_test_score'
p150
g11
(g12
(I0
tp151
g14
tp152
Rp153
(I1
(I1
tp154
g21
I00
S'\x00\x00\x00\x00\x00\x00\x00\x00'
p155
tp156
bsS'split8_train_score'
p157
g11
(g12
(I0
tp158
g14
tp159
Rp160
(I1
(I1
tp161
g21
I00
S'\xb40\xae\xc5K\x10\xe7?'
p162
tp163
bsS'split1_train_score'
p164
g11
(g12
(I0
tp165
g14
tp166
Rp167
(I1
(I1
tp168
g21
I00
S'p%\xb2\x18"\xeb\xe3?'
p169
tp170
bsS'split7_test_score'
p171
g11
(g12
(I0
tp172
g14
tp173
Rp174
(I1
(I1
tp175
g21
I00
S'\x00\x00\x00\x00\x00\x00\x00\x00'
p176
tp177
bsS'std_score_time'
p178
g11
(g12
(I0
tp179
g14
tp180
Rp181
(I1
(I1
tp182
g21
I00
S'\xb2\xf5C\xbb@\x08>?'
p183
tp184
bsS'mean_test_score'
p185
g11
(g12
(I0
tp186
g14
tp187
Rp188
(I1
(I1
tp189
g21
I00
S'\x00\x00\x00\x00\x00\x00\x00\x00'
p190
tp191
bsS'params'
p192
(lp193
(dp194
asS'std_fit_time'
p195
g11
(g12
(I0
tp196
g14
tp197
Rp198
(I1
(I1
tp199
g21
I00
S'\xfb3\x0e:\x93aI?'
p200
tp201
bsS'split3_test_score'
p202
g11
(g12
(I0
tp203
g14
tp204
Rp205
(I1
(I1
tp206
g21
I00
S'\x00\x00\x00\x00\x00\x00\x00\x00'
p207
tp208
bsS'mean_train_score'
p209
g11
(g12
(I0
tp210
g14
tp211
Rp212
(I1
(I1
tp213
g21
I00
S'\x82\xe2\xe0\xdc\xac\x8c\xe2?'
p214
tp215
bsS'split1_test_score'
p216
g11
(g12
(I0
tp217
g14
tp218
Rp219
(I1
(I1
tp220
g21
I00
S'\x00\x00\x00\x00\x00\x00\x00\x00'
p221
tp222
bsS'split8_test_score'
p223
g11
(g12
(I0
tp224
g14
tp225
Rp226
(I1
(I1
tp227
g21
I00
S'\x00\x00\x00\x00\x00\x00\x00\x00'
p228
tp229
bstp230
Rp231
(dp232
S'_deprecations'
p233
(dp234
g10
((S"You are accessing a training score ('std_train_score'), which will not be available by default any more in 0.21. If you need training scores, please set return_train_score=True"
p235
cexceptions
FutureWarning
p236
tp237
(dp238
tp239
sg136
((S"You are accessing a training score ('split6_train_score'), which will not be available by default any more in 0.21. If you need training scores, please set return_train_score=True"
p240
g236
tp241
(dp242
tp243
sg209
((S"You are accessing a training score ('mean_train_score'), which will not be available by default any more in 0.21. If you need training scores, please set return_train_score=True"
p244
g236
tp245
(dp246
tp247
sg157
((S"You are accessing a training score ('split8_train_score'), which will not be available by default any more in 0.21. If you need training scores, please set return_train_score=True"
p248
g236
tp249
(dp250
tp251
sg164
((S"You are accessing a training score ('split1_train_score'), which will not be available by default any more in 0.21. If you need training scores, please set return_train_score=True"
p252
g236
tp253
(dp254
tp255
sg59
((S"You are accessing a training score ('split2_train_score'), which will not be available by default any more in 0.21. If you need training scores, please set return_train_score=True"
p256
g236
tp257
(dp258
tp259
sg66
((S"You are accessing a training score ('split7_train_score'), which will not be available by default any more in 0.21. If you need training scores, please set return_train_score=True"
p260
g236
tp261
(dp262
tp263
sg73
((S"You are accessing a training score ('split0_train_score'), which will not be available by default any more in 0.21. If you need training scores, please set return_train_score=True"
p264
g236
tp265
(dp266
tp267
sg80
((S"You are accessing a training score ('split4_train_score'), which will not be available by default any more in 0.21. If you need training scores, please set return_train_score=True"
p268
g236
tp269
(dp270
tp271
sg129
((S"You are accessing a training score ('split5_train_score'), which will not be available by default any more in 0.21. If you need training scores, please set return_train_score=True"
p272
g236
tp273
(dp274
tp275
sg108
((S"You are accessing a training score ('split3_train_score'), which will not be available by default any more in 0.21. If you need training scores, please set return_train_score=True"
p276
g236
tp277
(dp278
tp279
sg115
((S"You are accessing a training score ('split9_train_score'), which will not be available by default any more in 0.21. If you need training scores, please set return_train_score=True"
p280
g236
tp281
(dp282
tp283
ssbsS'scoring'
p284
NsS'multimetric_'
p285
I00
sS'n_jobs'
p286
NsS'verbose'
p287
I0
sS'fit_params'
p288
NsS'refit'
p289
I01
sS'iid'
p290
S'warn'
p291
sS'best_estimator_'
p292
g0
(csklearn.linear_model.base
LinearRegression
p293
g2
Ntp294
Rp295
(dp296
S'normalize'
p297
I00
sg286
NsS'rank_'
p298
I1
sS'fit_intercept'
p299
I01
sS'_residues'
p300
g11
(g12
(I0
tp301
g14
tp302
Rp303
(I1
(I1
tp304
g21
I00
S'\xc1vB\xd1?t\tB'
p305
tp306
bsS'coef_'
p307
g11
(g12
(I0
tp308
g14
tp309
Rp310
(I1
(I1
I1
tp311
g21
I00
S':\x0b\xda\x9d"q[@'
p312
tp313
bsS'_sklearn_version'
p314
S'0.20.1'
p315
sS'copy_X'
p316
I01
sS'intercept_'
p317
g11
(g12
(I0
tp318
g14
tp319
Rp320
(I1
(I1
tp321
g21
I00
S'\xb2\x11!F\x85\xfc\xf7@'
p322
tp323
bsS'singular_'
p324
g11
(g12
(I0
tp325
g14
tp326
Rp327
(I1
(I1
tp328
g21
I00
S'\xf4bX\x1ba\x96\x93@'
p329
tp330
bsbsS'best_params_'
p331
g194
sS'best_score_'
p332
cnumpy.core.multiarray
scalar
p333
(g21
S'\x00\x00\x00\x00\x00\x00\x00\x00'
p334
tp335
Rp336
sS'param_grid'
p337
(dp338
sS'cv'
p339
I10
sS'refit_time_'
p340
F0.0
sS'scorer_'
p341
csklearn.metrics.scorer
_passthrough_scorer
p342
sS'best_index_'
p343
g333
(g33
S'\x00\x00\x00\x00'
p344
tp345
Rp346
sS'return_train_score'
p347
g291
sS'estimator'
p348
g0
(g293
g2
Ntp349
Rp350
(dp351
g297
I00
sg316
I01
sg286
Nsg314
g315
sg299
I01
sbsg314
g315
sS'error_score'
p352
S'raise-deprecating'
p353
sS'pre_dispatch'
p354
S'2*n_jobs'
p355
sS'n_splits_'
p356
I10
sb.